target datalayout = "e-m:e-p270:32:32-p271:32:32-p272:64:64-i64:64-i128:128-f80:128-n8:16:32:64-S128"
target triple = "x86_64-pc-linux-gnu"

%struct.AVRational = type { i32, i32 }
%struct.CIDEntry = type { i32, i32, i32, i32, i32, i16, i32, i32, i32, ptr, ptr, ptr, ptr, ptr, ptr, ptr, ptr, ptr, ptr, [5 x i32], %struct.AVRational }

; Function Attrs: nounwind uwtable
define ptr @ff_dnxhd_get_cid_table(i32 noundef %0) #0 {
  %2 = alloca ptr, align 8
  %3 = alloca i32, align 4
  %4 = alloca i32, align 4
  %5 = alloca i32, align 4
  store i32 %0, ptr %3, align 4, !tbaa !4
  call void @llvm.lifetime.start.p0(i64 4, ptr %4) #3
  store i32 0, ptr %4, align 4, !tbaa !4
  br label %6

6:                                                ; preds = %24, %1
  %7 = load i32, ptr %4, align 4, !tbaa !4
  %8 = sext i32 %7 to i64
  %9 = icmp ult i64 %8, 20
  br i1 %9, label %11, label %10

10:                                               ; preds = %6
  store i32 2, ptr %5, align 4
  br label %27

11:                                               ; preds = %6
  %12 = load i32, ptr %4, align 4, !tbaa !4
  %13 = sext i32 %12 to i64
  %14 = getelementptr inbounds [20 x %struct.CIDEntry], ptr @dnxhd_cid_table, i64 0, i64 %13
  %15 = getelementptr inbounds nuw %struct.CIDEntry, ptr %14, i32 0, i32 0
  %16 = load i32, ptr %15, align 8, !tbaa !8
  %17 = load i32, ptr %3, align 4, !tbaa !4
  %18 = icmp eq i32 %16, %17
  br i1 %18, label %19, label %23

19:                                               ; preds = %11
  %20 = load i32, ptr %4, align 4, !tbaa !4
  %21 = sext i32 %20 to i64
  %22 = getelementptr inbounds [20 x %struct.CIDEntry], ptr @dnxhd_cid_table, i64 0, i64 %21
  store ptr %22, ptr %2, align 8
  store i32 1, ptr %5, align 4
  br label %27

23:                                               ; preds = %11
  br label %24

24:                                               ; preds = %23
  %25 = load i32, ptr %4, align 4, !tbaa !4
  %26 = add nsw i32 %25, 1
  store i32 %26, ptr %4, align 4, !tbaa !4
  br label %6, !llvm.loop !15

27:                                               ; preds = %19, %10
  call void @llvm.lifetime.end.p0(i64 4, ptr %4) #3
  %28 = load i32, ptr %5, align 4
  switch i32 %28, label %32 [
    i32 2, label %29
    i32 1, label %30
  ]

29:                                               ; preds = %27
  store ptr null, ptr %2, align 8
  br label %30

30:                                               ; preds = %29, %27
  %31 = load ptr, ptr %2, align 8
  ret ptr %31

32:                                               ; preds = %27
  unreachable
}

; Function Attrs: nounwind uwtable
define i32 @ff_dnxhd_get_hr_frame_size(i32 noundef %0, i32 noundef %1, i32 noundef %2) #0 {
  %4 = alloca i32, align 4
  %5 = alloca i32, align 4
  %6 = alloca i32, align 4
  %7 = alloca i32, align 4
  %8 = alloca ptr, align 8
  %9 = alloca i32, align 4
  %10 = alloca i32, align 4
  store i32 %0, ptr %5, align 4, !tbaa !4
  store i32 %1, ptr %6, align 4, !tbaa !4
  store i32 %2, ptr %7, align 4, !tbaa !4
  call void @llvm.lifetime.start.p0(i64 8, ptr %8) #3
  %11 = load i32, ptr %5, align 4, !tbaa !4
  %12 = call ptr @ff_dnxhd_get_cid_table(i32 noundef %11)
  store ptr %12, ptr %8, align 8, !tbaa !17
  call void @llvm.lifetime.start.p0(i64 4, ptr %9) #3
  %13 = load ptr, ptr %8, align 8, !tbaa !17
  %14 = icmp ne ptr %13, null
  br i1 %14, label %16, label %15

15:                                               ; preds = %3
  store i32 -1, ptr %4, align 4
  store i32 1, ptr %10, align 4
  br label %49

16:                                               ; preds = %3
  %17 = load i32, ptr %7, align 4, !tbaa !4
  %18 = add nsw i32 %17, 15
  %19 = sdiv i32 %18, 16
  %20 = load i32, ptr %6, align 4, !tbaa !4
  %21 = add nsw i32 %20, 15
  %22 = sdiv i32 %21, 16
  %23 = mul nsw i32 %19, %22
  %24 = sext i32 %23 to i64
  %25 = load ptr, ptr %8, align 8, !tbaa !17
  %26 = getelementptr inbounds nuw %struct.CIDEntry, ptr %25, i32 0, i32 20
  %27 = getelementptr inbounds nuw %struct.AVRational, ptr %26, i32 0, i32 0
  %28 = load i32, ptr %27, align 4, !tbaa !20
  %29 = sext i32 %28 to i64
  %30 = mul nsw i64 %24, %29
  %31 = load ptr, ptr %8, align 8, !tbaa !17
  %32 = getelementptr inbounds nuw %struct.CIDEntry, ptr %31, i32 0, i32 20
  %33 = getelementptr inbounds nuw %struct.AVRational, ptr %32, i32 0, i32 1
  %34 = load i32, ptr %33, align 4, !tbaa !21
  %35 = sext i32 %34 to i64
  %36 = sdiv i64 %30, %35
  %37 = trunc i64 %36 to i32
  store i32 %37, ptr %9, align 4, !tbaa !4
  %38 = load i32, ptr %9, align 4, !tbaa !4
  %39 = add nsw i32 %38, 2048
  %40 = sdiv i32 %39, 4096
  %41 = mul nsw i32 %40, 4096
  store i32 %41, ptr %9, align 4, !tbaa !4
  %42 = load i32, ptr %9, align 4, !tbaa !4
  %43 = icmp sgt i32 %42, 8192
  br i1 %43, label %44, label %46

44:                                               ; preds = %16
  %45 = load i32, ptr %9, align 4, !tbaa !4
  br label %47

46:                                               ; preds = %16
  br label %47

47:                                               ; preds = %46, %44
  %48 = phi i32 [ %45, %44 ], [ 8192, %46 ]
  store i32 %48, ptr %4, align 4
  store i32 1, ptr %10, align 4
  br label %49

49:                                               ; preds = %47, %15
  call void @llvm.lifetime.end.p0(i64 4, ptr %9) #3
  call void @llvm.lifetime.end.p0(i64 8, ptr %8) #3
  %50 = load i32, ptr %4, align 4
  ret i32 %50
}