; Function Attrs: nofree norecurse nosync nounwind memory(none) uwtable
define range(i32 -1, 2147479553) i32 @ff_dnxhd_get_hr_frame_size(i32 noundef %0, i32 noundef %1, i32 noundef %2) local_unnamed_addr #0 {
  br label %5

4:                                                ; preds = %5
  %indvars.iv.next.i = add nuw nsw i64 %indvars.iv.i, 1
  %exitcond.i = icmp eq i64 %indvars.iv.next.i, 20
  br i1 %exitcond.i, label %ff_dnxhd_get_cid_table.exit.thread, label %5, !llvm.loop !4

5:                                                ; preds = %4, %3
  %indvars.iv.i = phi i64 [ 0, %3 ], [ %indvars.iv.next.i, %4 ]
  %6 = getelementptr inbounds nuw [20 x %struct.CIDEntry], ptr @dnxhd_cid_table, i64 0, i64 %indvars.iv.i
  %7 = load i32, ptr %6, align 8, !tbaa !6
  %8 = icmp eq i32 %7, %0
  br i1 %8, label %ff_dnxhd_get_cid_table.exit, label %4

ff_dnxhd_get_cid_table.exit:                      ; preds = %5
  %9 = add nsw i32 %2, 15
  %10 = sdiv i32 %9, 16
  %11 = add nsw i32 %1, 15
  %12 = sdiv i32 %11, 16
  %13 = mul nsw i32 %10, %12
  %14 = sext i32 %13 to i64
  %15 = getelementptr inbounds nuw i8, ptr %6, i64 140
  %16 = load i32, ptr %15, align 4, !tbaa !17
  %17 = sext i32 %16 to i64
  %18 = mul nsw i64 %17, %14
  %19 = getelementptr inbounds nuw i8, ptr %6, i64 144
  %20 = load i32, ptr %19, align 4, !tbaa !18
  %21 = sext i32 %20 to i64
  %22 = sdiv i64 %18, %21
  %23 = trunc i64 %22 to i32
  %24 = add nsw i32 %23, 2048
  %25 = sdiv i32 %24, 4096
  %26 = shl nsw i32 %25, 12
  %27 = tail call i32 @llvm.smax.i32(i32 %26, i32 8192)
  br label %ff_dnxhd_get_cid_table.exit.thread

ff_dnxhd_get_cid_table.exit.thread:               ; preds = %4, %ff_dnxhd_get_cid_table.exit
  %.0 = phi i32 [ %27, %ff_dnxhd_get_cid_table.exit ], [ -1, %4 ]
  ret i32 %.0
}